	.text
	.file	"nop_test_with.cpp"
	.file	1 "/usr/lib/gcc/x86_64-linux-gnu/9/../../../../include/x86_64-linux-gnu/c++/9/bits" "atomic_word.h"
	.file	2 "/usr/lib/gcc/x86_64-linux-gnu/9/../../../../include/c++/9/bits" "ios_base.h"
	.file	3 "/usr/lib/gcc/x86_64-linux-gnu/9/../../../../include/c++/9" "iostream"
	.file	4 "/usr/lib/gcc/x86_64-linux-gnu/9/../../../../include/c++/9/ext" "concurrence.h"
	.file	5 "/opt/rocm-4.0.1/hip/include/hip/hcc_detail" "driver_types.h"
	.file	6 "/opt/rocm-4.0.1/hip/include/hip" "hip_runtime_api.h"
	.file	7 "/usr/include/x86_64-linux-gnu/bits" "types.h"
	.file	8 "/usr/include/x86_64-linux-gnu/bits" "stdint-uintn.h"
	.file	9 "/opt/rocm-4.0.1/hip/include/hip/hcc_detail" "hip_runtime_api.h"
	.file	10 "/usr/include" "stdlib.h"
	.file	11 "/usr/lib/gcc/x86_64-linux-gnu/9/../../../../include/c++/9/bits" "std_abs.h"
	.file	12 "/usr/include/x86_64-linux-gnu/bits" "mathcalls.h"
	.file	13 "/usr/lib/gcc/x86_64-linux-gnu/9/../../../../include/c++/9" "cmath"
	.file	14 "/usr/include" "math.h"
	.file	15 "/usr/lib/gcc/x86_64-linux-gnu/9/../../../../include/c++/9" "cstdlib"
	.file	16 "/opt/rocm-4.0.1/llvm/lib/clang/12.0.0/include" "stddef.h"
	.file	17 "/usr/lib/gcc/x86_64-linux-gnu/9/../../../../include/c++/9" "stdlib.h"
	.file	18 "/usr/lib/gcc/x86_64-linux-gnu/9/../../../../include/c++/9/debug" "debug.h"
	.file	19 "/usr/lib/gcc/x86_64-linux-gnu/9/../../../../include/c++/9/bits" "exception_ptr.h"
	.file	20 "/usr/lib/gcc/x86_64-linux-gnu/9/../../../../include/x86_64-linux-gnu/c++/9/bits" "c++config.h"
	.file	21 "/opt/rocm-4.0.1/llvm/lib/clang/12.0.0/include" "__clang_cuda_math_forward_declares.h"
	.file	22 "/opt/rocm-4.0.1/llvm/lib/clang/12.0.0/include" "__clang_hip_math.h"
	.file	23 "/usr/include/x86_64-linux-gnu/bits/types" "__mbstate_t.h"
	.file	24 "/usr/include/x86_64-linux-gnu/bits/types" "mbstate_t.h"
	.file	25 "/usr/lib/gcc/x86_64-linux-gnu/9/../../../../include/c++/9" "cwchar"
	.file	26 "/usr/include/x86_64-linux-gnu/bits/types" "wint_t.h"
	.file	27 "/usr/include" "wchar.h"
	.file	28 "/usr/include/x86_64-linux-gnu/bits/types" "__FILE.h"
	.file	29 "/usr/include/x86_64-linux-gnu/bits" "stdint-intn.h"
	.file	30 "/usr/lib/gcc/x86_64-linux-gnu/9/../../../../include/c++/9" "cstdint"
	.file	31 "/usr/include" "stdint.h"
	.file	32 "/usr/lib/gcc/x86_64-linux-gnu/9/../../../../include/c++/9/ext" "new_allocator.h"
	.file	33 "/usr/lib/gcc/x86_64-linux-gnu/9/../../../../include/c++/9" "clocale"
	.file	34 "/usr/include" "locale.h"
	.file	35 "/usr/include" "ctype.h"
	.file	36 "/usr/lib/gcc/x86_64-linux-gnu/9/../../../../include/c++/9" "cctype"
	.file	37 "/usr/include/x86_64-linux-gnu/bits/types" "FILE.h"
	.file	38 "/usr/lib/gcc/x86_64-linux-gnu/9/../../../../include/c++/9" "cstdio"
	.file	39 "/usr/include/x86_64-linux-gnu/bits/types" "__fpos_t.h"
	.file	40 "/usr/include" "stdio.h"
	.file	41 "/usr/include" "wctype.h"
	.file	42 "/usr/lib/gcc/x86_64-linux-gnu/9/../../../../include/c++/9" "cwctype"
	.file	43 "/usr/include/x86_64-linux-gnu/bits" "wctype-wchar.h"
	.file	44 "/usr/include/x86_64-linux-gnu/bits/types" "clock_t.h"
	.file	45 "/usr/lib/gcc/x86_64-linux-gnu/9/../../../../include/c++/9" "ctime"
	.file	46 "/usr/include/x86_64-linux-gnu/bits/types" "time_t.h"
	.file	47 "/usr/include" "time.h"
	.file	48 "/usr/lib/gcc/x86_64-linux-gnu/9/../../../../include/c++/9/bits" "shared_ptr_base.h"
	.section	.text.startup,"ax",@progbits
	.p2align	4, 0x90                         # -- Begin function __cxx_global_var_init
	.type	__cxx_global_var_init,@function
__cxx_global_var_init:                  # @__cxx_global_var_init
.Lfunc_begin0:
	.loc	3 74 0                          # /usr/lib/gcc/x86_64-linux-gnu/9/../../../../include/c++/9/iostream:74:0
	.cfi_startproc
# %bb.0:
	pushq	%rbp
	.cfi_def_cfa_offset 16
	.cfi_offset %rbp, -16
	movq	%rsp, %rbp
	.cfi_def_cfa_register %rbp
.Ltmp0:
	.loc	3 74 25 prologue_end            # /usr/lib/gcc/x86_64-linux-gnu/9/../../../../include/c++/9/iostream:74:25
	movabsq	$_ZStL8__ioinit, %rdi
	callq	_ZNSt8ios_base4InitC1Ev
	movabsq	$_ZNSt8ios_base4InitD1Ev, %rax
	movq	%rax, %rdi
	movabsq	$_ZStL8__ioinit, %rsi
	movabsq	$__dso_handle, %rdx
	callq	__cxa_atexit
	popq	%rbp
	.cfi_def_cfa %rsp, 8
	retq
.Ltmp1:
.Lfunc_end0:
	.size	__cxx_global_var_init, .Lfunc_end0-__cxx_global_var_init
	.cfi_endproc
                                        # -- End function
	.text
	.globl	_Z21__device_stub__kernelPi     # -- Begin function _Z21__device_stub__kernelPi
	.p2align	4, 0x90
	.type	_Z21__device_stub__kernelPi,@function
_Z21__device_stub__kernelPi:            # @_Z21__device_stub__kernelPi
.Lfunc_begin1:
	.cfi_startproc
# %bb.0:
	pushq	%rbp
	.cfi_def_cfa_offset 16
	.cfi_offset %rbp, -16
	movq	%rsp, %rbp
	.cfi_def_cfa_register %rbp
	subq	$144, %rsp
	movq	%rdi, -8(%rbp)
	leaq	-8(%rbp), %rax
	movq	%rax, -96(%rbp)
	leaq	-24(%rbp), %rdi
	leaq	-40(%rbp), %rsi
	leaq	-48(%rbp), %rdx
	leaq	-56(%rbp), %rcx
	callq	__hipPopCallConfiguration
	movabsq	$_Z21__device_stub__kernelPi, %rcx
	movq	-48(%rbp), %rdx
	movq	-56(%rbp), %rsi
	movq	-24(%rbp), %rdi
	movq	%rdi, -72(%rbp)
	movl	-16(%rbp), %edi
	movl	%edi, -64(%rbp)
	movq	-72(%rbp), %rdi
	movl	-64(%rbp), %r8d
	movq	-40(%rbp), %r9
	movq	%r9, -88(%rbp)
	movl	-32(%rbp), %r9d
	movl	%r9d, -80(%rbp)
	movq	-88(%rbp), %r9
	movl	-80(%rbp), %r10d
	movq	%rdi, -104(%rbp)                # 8-byte Spill
	movq	%rcx, %rdi
	movq	-104(%rbp), %rcx                # 8-byte Reload
	movq	%rsi, -112(%rbp)                # 8-byte Spill
	movq	%rcx, %rsi
	movq	%rdx, -120(%rbp)                # 8-byte Spill
	movl	%r8d, %edx
	movq	%r9, %rcx
	movl	%r10d, %r8d
	leaq	-96(%rbp), %r9
	movq	-120(%rbp), %r10                # 8-byte Reload
	movq	%r10, (%rsp)
	movq	-112(%rbp), %r10                # 8-byte Reload
	movq	%r10, 8(%rsp)
	movl	%eax, -124(%rbp)                # 4-byte Spill
	callq	hipLaunchKernel
# %bb.1:
	addq	$144, %rsp
	popq	%rbp
	.cfi_def_cfa %rsp, 8
	retq
.Lfunc_end1:
	.size	_Z21__device_stub__kernelPi, .Lfunc_end1-_Z21__device_stub__kernelPi
	.cfi_endproc
                                        # -- End function
	.globl	main                            # -- Begin function main
	.p2align	4, 0x90
	.type	main,@function
main:                                   # @main
.Lfunc_begin2:
	.file	49 "/u/j/a/jarvis/eldin_gpu/test_miss/nop_with" "nop_test_with.cpp"
	.loc	49 32 0                         # nop_test_with.cpp:32:0
	.cfi_startproc
# %bb.0:
	pushq	%rbp
	.cfi_def_cfa_offset 16
	.cfi_offset %rbp, -16
	movq	%rsp, %rbp
	.cfi_def_cfa_register %rbp
	subq	$112, %rsp
	movl	$0, -4(%rbp)
.Ltmp2:
	.loc	49 36 23 prologue_end           # nop_test_with.cpp:36:23
	movl	$4, %edi
	movl	$4194304, %esi                  # imm = 0x400000
	callq	calloc
	.loc	49 36 10 is_stmt 0              # nop_test_with.cpp:36:10
	movq	%rax, -16(%rbp)
	.loc	49 38 10 is_stmt 1              # nop_test_with.cpp:38:10
	movq	$0, -24(%rbp)
	.loc	49 45 5                         # nop_test_with.cpp:45:5
	leaq	-24(%rbp), %rdi
.Ltmp3:
	#DEBUG_VALUE: main:arr_align <- [$rdi+0]
	movl	$16777472, %esi                 # imm = 0x1000100
	movl	$1, %edx
	callq	_ZL16hipMallocManagedIiE10hipError_tPPT_mj
.Ltmp4:
	.loc	49 47 44                        # nop_test_with.cpp:47:44
	movq	-24(%rbp), %rcx
	.loc	49 47 55 is_stmt 0              # nop_test_with.cpp:47:55
	shrq	$6, %rcx
	.loc	49 47 61                        # nop_test_with.cpp:47:61
	shlq	$6, %rcx
	.loc	49 47 67                        # nop_test_with.cpp:47:67
	addq	$64, %rcx
	.loc	49 47 11                        # nop_test_with.cpp:47:11
	movq	%rcx, -32(%rbp)
	.loc	49 51 15 is_stmt 1              # nop_test_with.cpp:51:15
	movq	-32(%rbp), %rcx
	.loc	49 51 22 is_stmt 0              # nop_test_with.cpp:51:22
	movq	-16(%rbp), %rdx
	.loc	49 51 5                         # nop_test_with.cpp:51:5
	movq	%rcx, %rdi
	movq	%rdx, %rsi
	movl	$16777216, %edx                 # imm = 0x1000000
	movl	$1, %ecx
	movl	%eax, -100(%rbp)                # 4-byte Spill
	callq	hipMemcpy
# %bb.1:
.Ltmp5:
	.loc	49 55 22 is_stmt 1              # nop_test_with.cpp:55:22
	leaq	-48(%rbp), %rdi
	movl	$1, %eax
	movl	%eax, %esi
	movl	%eax, %edx
	movl	%eax, %ecx
	callq	_ZN4dim3C2Ejjj
	.loc	49 55 33 is_stmt 0              # nop_test_with.cpp:55:33
	leaq	-64(%rbp), %rdi
	movl	$1, %eax
	movl	%eax, %esi
	movl	%eax, %edx
	movl	%eax, %ecx
	callq	_ZN4dim3C2Ejjj
	xorl	%eax, %eax
                                        # kill: def $rax killed $eax
	.loc	49 55 18                        # nop_test_with.cpp:55:18
	movq	-48(%rbp), %rcx
	movq	%rcx, -80(%rbp)
	movl	-40(%rbp), %ecx
	movl	%ecx, -72(%rbp)
	movq	-80(%rbp), %rdi
	movl	-72(%rbp), %esi
	movq	-64(%rbp), %rcx
	movq	%rcx, -96(%rbp)
	movl	-56(%rbp), %ecx
	movl	%ecx, -88(%rbp)
	movq	-96(%rbp), %rdx
	movl	-88(%rbp), %ecx
	movq	%rax, %r8
	movq	%rax, %r9
	callq	__hipPushCallConfiguration
	cmpl	$0, %eax
	.loc	49 55 10                        # nop_test_with.cpp:55:10
	jne	.LBB2_3
# %bb.2:
	.loc	49 55 55                        # nop_test_with.cpp:55:55
	movq	-32(%rbp), %rdi
	.loc	49 55 10                        # nop_test_with.cpp:55:10
	callq	_Z21__device_stub__kernelPi
.LBB2_3:
	.loc	49 55 63                        # nop_test_with.cpp:55:63
	jmp	.LBB2_4
.Ltmp6:
.LBB2_4:
	.loc	49 59 34 is_stmt 1              # nop_test_with.cpp:59:34
	movq	-16(%rbp), %rax
	movl	(%rax), %esi
	.loc	49 59 5 is_stmt 0               # nop_test_with.cpp:59:5
	movabsq	$.L.str, %rdi
	movb	$0, %al
	callq	printf
	.loc	49 60 34 is_stmt 1              # nop_test_with.cpp:60:34
	movq	-32(%rbp), %rcx
	movl	(%rcx), %esi
	.loc	49 60 5 is_stmt 0               # nop_test_with.cpp:60:5
	movabsq	$.L.str, %rdi
	movl	%eax, -104(%rbp)                # 4-byte Spill
	movb	$0, %al
	callq	printf
	.loc	49 62 13 is_stmt 1              # nop_test_with.cpp:62:13
	movq	-32(%rbp), %rcx
	.loc	49 62 5 is_stmt 0               # nop_test_with.cpp:62:5
	movq	%rcx, %rdi
	movl	%eax, -108(%rbp)                # 4-byte Spill
	callq	hipFree
	.loc	49 64 10 is_stmt 1              # nop_test_with.cpp:64:10
	movq	-16(%rbp), %rcx
	.loc	49 64 5 is_stmt 0               # nop_test_with.cpp:64:5
	movq	%rcx, %rdi
	movl	%eax, -112(%rbp)                # 4-byte Spill
	callq	free
	xorl	%eax, %eax
	.loc	49 66 5 is_stmt 1               # nop_test_with.cpp:66:5
	addq	$112, %rsp
	popq	%rbp
	.cfi_def_cfa %rsp, 8
	retq
.Ltmp7:
.Lfunc_end2:
	.size	main, .Lfunc_end2-main
	.cfi_endproc
                                        # -- End function
	.p2align	4, 0x90                         # -- Begin function _ZL16hipMallocManagedIiE10hipError_tPPT_mj
	.type	_ZL16hipMallocManagedIiE10hipError_tPPT_mj,@function
_ZL16hipMallocManagedIiE10hipError_tPPT_mj: # @_ZL16hipMallocManagedIiE10hipError_tPPT_mj
.Lfunc_begin3:
	.loc	6 417 0                         # /opt/rocm-4.0.1/hip/include/hip/hip_runtime_api.h:417:0
	.cfi_startproc
# %bb.0:
	pushq	%rbp
	.cfi_def_cfa_offset 16
	.cfi_offset %rbp, -16
	movq	%rsp, %rbp
	.cfi_def_cfa_register %rbp
	subq	$32, %rsp
	movq	%rdi, -8(%rbp)
	movq	%rsi, -16(%rbp)
	movl	%edx, -20(%rbp)
.Ltmp8:
	.loc	6 418 37 prologue_end           # /opt/rocm-4.0.1/hip/include/hip/hip_runtime_api.h:418:37
	movq	-8(%rbp), %rax
	.loc	6 418 45 is_stmt 0              # /opt/rocm-4.0.1/hip/include/hip/hip_runtime_api.h:418:45
	movq	-16(%rbp), %rsi
	.loc	6 418 51                        # /opt/rocm-4.0.1/hip/include/hip/hip_runtime_api.h:418:51
	movl	-20(%rbp), %edx
	.loc	6 418 12                        # /opt/rocm-4.0.1/hip/include/hip/hip_runtime_api.h:418:12
	movq	%rax, %rdi
	callq	hipMallocManaged
	.loc	6 418 5                         # /opt/rocm-4.0.1/hip/include/hip/hip_runtime_api.h:418:5
	addq	$32, %rsp
	popq	%rbp
	.cfi_def_cfa %rsp, 8
	retq
.Ltmp9:
.Lfunc_end3:
	.size	_ZL16hipMallocManagedIiE10hipError_tPPT_mj, .Lfunc_end3-_ZL16hipMallocManagedIiE10hipError_tPPT_mj
	.cfi_endproc
                                        # -- End function
	.section	.text._ZN4dim3C2Ejjj,"axG",@progbits,_ZN4dim3C2Ejjj,comdat
	.weak	_ZN4dim3C2Ejjj                  # -- Begin function _ZN4dim3C2Ejjj
	.p2align	4, 0x90
	.type	_ZN4dim3C2Ejjj,@function
_ZN4dim3C2Ejjj:                         # @_ZN4dim3C2Ejjj
.Lfunc_begin4:
	.loc	9 335 0 is_stmt 1               # /opt/rocm-4.0.1/hip/include/hip/hcc_detail/hip_runtime_api.h:335:0
	.cfi_startproc
# %bb.0:
	pushq	%rbp
	.cfi_def_cfa_offset 16
	.cfi_offset %rbp, -16
	movq	%rsp, %rbp
	.cfi_def_cfa_register %rbp
	movq	%rdi, -8(%rbp)
	movl	%esi, -12(%rbp)
	movl	%edx, -16(%rbp)
	movl	%ecx, -20(%rbp)
	movq	-8(%rbp), %rax
.Ltmp10:
	.loc	9 335 111 prologue_end          # /opt/rocm-4.0.1/hip/include/hip/hcc_detail/hip_runtime_api.h:335:111
	movl	-12(%rbp), %ecx
	.loc	9 335 109 is_stmt 0             # /opt/rocm-4.0.1/hip/include/hip/hcc_detail/hip_runtime_api.h:335:109
	movl	%ecx, (%rax)
	.loc	9 335 118                       # /opt/rocm-4.0.1/hip/include/hip/hcc_detail/hip_runtime_api.h:335:118
	movl	-16(%rbp), %ecx
	.loc	9 335 116                       # /opt/rocm-4.0.1/hip/include/hip/hcc_detail/hip_runtime_api.h:335:116
	movl	%ecx, 4(%rax)
	.loc	9 335 125                       # /opt/rocm-4.0.1/hip/include/hip/hcc_detail/hip_runtime_api.h:335:125
	movl	-20(%rbp), %ecx
	.loc	9 335 123                       # /opt/rocm-4.0.1/hip/include/hip/hcc_detail/hip_runtime_api.h:335:123
	movl	%ecx, 8(%rax)
	.loc	9 335 129                       # /opt/rocm-4.0.1/hip/include/hip/hcc_detail/hip_runtime_api.h:335:129
	popq	%rbp
	.cfi_def_cfa %rsp, 8
	retq
.Ltmp11:
.Lfunc_end4:
	.size	_ZN4dim3C2Ejjj, .Lfunc_end4-_ZN4dim3C2Ejjj
	.cfi_endproc
                                        # -- End function
	.section	.text.startup,"ax",@progbits
	.p2align	4, 0x90                         # -- Begin function _GLOBAL__sub_I_nop_test_with.cpp
	.type	_GLOBAL__sub_I_nop_test_with.cpp,@function
_GLOBAL__sub_I_nop_test_with.cpp:       # @_GLOBAL__sub_I_nop_test_with.cpp
.Lfunc_begin5:
	.loc	49 0 0 is_stmt 1                # nop_test_with.cpp:0:0
	.cfi_startproc
# %bb.0:
	pushq	%rbp
	.cfi_def_cfa_offset 16
	.cfi_offset %rbp, -16
	movq	%rsp, %rbp
	.cfi_def_cfa_register %rbp
.Ltmp12:
	callq	__cxx_global_var_init
	popq	%rbp
	.cfi_def_cfa %rsp, 8
	retq
.Ltmp13:
.Lfunc_end5:
	.size	_GLOBAL__sub_I_nop_test_with.cpp, .Lfunc_end5-_GLOBAL__sub_I_nop_test_with.cpp
	.cfi_endproc
                                        # -- End function
	.text
	.p2align	4, 0x90                         # -- Begin function __hip_register_globals
	.type	__hip_register_globals,@function
__hip_register_globals:                 # @__hip_register_globals
.Lfunc_begin6:
	.cfi_startproc
# %bb.0:
	subq	$40, %rsp
	.cfi_def_cfa_offset 48
	movabsq	$_Z21__device_stub__kernelPi, %rax
	xorl	%ecx, %ecx
	movl	%ecx, %r9d
	movq	%rax, %rsi
	movabsq	$.L__unnamed_1, %rax
	movq	%rax, %rdx
	movq	%rax, %rcx
	movl	$4294967295, %r8d               # imm = 0xFFFFFFFF
	movq	$0, (%rsp)
	movq	$0, 8(%rsp)
	movq	$0, 16(%rsp)
	movq	$0, 24(%rsp)
	callq	__hipRegisterFunction
	addq	$40, %rsp
	.cfi_def_cfa_offset 8
	retq
.Lfunc_end6:
	.size	__hip_register_globals, .Lfunc_end6-__hip_register_globals
	.cfi_endproc
                                        # -- End function
	.p2align	4, 0x90                         # -- Begin function __hip_module_ctor
	.type	__hip_module_ctor,@function
__hip_module_ctor:                      # @__hip_module_ctor
.Lfunc_begin7:
	.cfi_startproc
# %bb.0:
	pushq	%rax
	.cfi_def_cfa_offset 16
	cmpq	$0, __hip_gpubin_handle
	jne	.LBB7_2
# %bb.1:
	movabsq	$__hip_fatbin_wrapper, %rax
	movq	%rax, %rdi
	callq	__hipRegisterFatBinary
	movq	%rax, __hip_gpubin_handle
.LBB7_2:
	movq	__hip_gpubin_handle, %rdi
	callq	__hip_register_globals
	movabsq	$__hip_module_dtor, %rdi
	callq	atexit
	popq	%rax
	.cfi_def_cfa_offset 8
	retq
.Lfunc_end7:
	.size	__hip_module_ctor, .Lfunc_end7-__hip_module_ctor
	.cfi_endproc
                                        # -- End function
	.p2align	4, 0x90                         # -- Begin function __hip_module_dtor
	.type	__hip_module_dtor,@function
__hip_module_dtor:                      # @__hip_module_dtor
.Lfunc_begin8:
	.cfi_startproc
# %bb.0:
	pushq	%rax
	.cfi_def_cfa_offset 16
	movq	__hip_gpubin_handle, %rax
	cmpq	$0, %rax
	movq	%rax, (%rsp)                    # 8-byte Spill
	je	.LBB8_2
# %bb.1:
	movq	(%rsp), %rdi                    # 8-byte Reload
	callq	__hipUnregisterFatBinary
	movq	$0, __hip_gpubin_handle
.LBB8_2:
	popq	%rax
	.cfi_def_cfa_offset 8
	retq
.Lfunc_end8:
	.size	__hip_module_dtor, .Lfunc_end8-__hip_module_dtor
	.cfi_endproc
                                        # -- End function
	.type	_ZStL8__ioinit,@object          # @_ZStL8__ioinit
	.local	_ZStL8__ioinit
	.comm	_ZStL8__ioinit,1,1
	.hidden	__dso_handle
	.type	.L.str,@object                  # @.str
	.section	.rodata.str1.1,"aMS",@progbits,1
.L.str:
	.asciz	"Dummy value = %d\n"
	.size	.L.str, 18

	.type	.L__unnamed_1,@object           # @0
.L__unnamed_1:
	.asciz	"_Z6kernelPi"
	.size	.L__unnamed_1, 12

	.type	.L__unnamed_2,@object           # @1
	.section	.hip_fatbin,"a",@progbits
	.p2align	3
.L__unnamed_2:
